target datalayout = "e-m:e-p270:32:32-p271:32:32-p272:64:64-i64:64-i128:128-f80:128-n8:16:32:64-S128"
target triple = "x86_64-pc-linux-gnu"

%"class.google::protobuf::io::ZeroCopyInputStream" = type { ptr }
%"class.google::protobuf::io::CopyingInputStream" = type { ptr }
%"class.google::protobuf::io::CopyingInputStreamAdaptor" = type <{ %"class.google::protobuf::io::ZeroCopyInputStream", ptr, i8, i8, [6 x i8], i64, %"class.std::unique_ptr", i32, i32, i32, [4 x i8] }>
%"class.std::unique_ptr" = type { %"struct.std::__uniq_ptr_data" }
%"struct.std::__uniq_ptr_data" = type { %"class.std::__uniq_ptr_impl" }
%"class.std::__uniq_ptr_impl" = type { %"class.std::tuple" }
%"class.std::tuple" = type { %"struct.std::_Tuple_impl" }
%"struct.std::_Tuple_impl" = type { %"struct.std::_Head_base.1" }
%"struct.std::_Head_base.1" = type { ptr }
%"class.google::protobuf::io::IstreamInputStream" = type { %"class.google::protobuf::io::ZeroCopyInputStream", %"class.google::protobuf::io::IstreamInputStream::CopyingIstreamInputStream", %"class.google::protobuf::io::CopyingInputStreamAdaptor" }
%"class.google::protobuf::io::IstreamInputStream::CopyingIstreamInputStream" = type { %"class.google::protobuf::io::CopyingInputStream", ptr }

@_ZN6google8protobuf2io18IstreamInputStream25CopyingIstreamInputStreamC1EPSi = hidden unnamed_addr alias void (ptr, ptr), ptr @_ZN6google8protobuf2io18IstreamInputStream25CopyingIstreamInputStreamC2EPSi
@_ZN6google8protobuf2io18IstreamInputStream25CopyingIstreamInputStreamD1Ev = hidden unnamed_addr alias void (ptr), ptr @_ZN6google8protobuf2io18IstreamInputStream25CopyingIstreamInputStreamD2Ev

; Function Attrs: mustprogress nounwind uwtable
define linkonce_odr hidden void @_ZN6google8protobuf2io19ZeroCopyInputStreamD2Ev(ptr noundef nonnull align 8 dereferenceable(8) %0) unnamed_addr #5 comdat align 2 {
  %2 = alloca ptr, align 8
  store ptr %0, ptr %2, align 8, !tbaa !12
  ret void
}

; Function Attrs: mustprogress nounwind uwtable
define linkonce_odr hidden void @_ZN6google8protobuf2io19ZeroCopyInputStreamC2Ev(ptr noundef nonnull align 8 dereferenceable(8) %0) unnamed_addr #5 comdat align 2 {
  %2 = alloca ptr, align 8
  store ptr %0, ptr %2, align 8, !tbaa !12
  %3 = load ptr, ptr %2, align 8
  store ptr getelementptr inbounds inrange(-16, 48) ({ [8 x ptr] }, ptr @_ZTVN6google8protobuf2io19ZeroCopyInputStreamE, i32 0, i32 0, i32 2), ptr %3, align 8, !tbaa !10
  ret void
}

; Function Attrs: mustprogress uwtable
define hidden void @_ZN6google8protobuf2io18IstreamInputStreamC2EPSii(ptr noundef nonnull align 8 dereferenceable(80) %0, ptr noundef %1, i32 noundef %2) unnamed_addr #4 align 2 personality ptr @__gxx_personality_v0 {
  %4 = alloca ptr, align 8
  %5 = alloca ptr, align 8
  %6 = alloca i32, align 4
  %7 = alloca ptr, align 8
  %8 = alloca i32, align 4
  store ptr %0, ptr %4, align 8, !tbaa !53
  store ptr %1, ptr %5, align 8, !tbaa !55
  store i32 %2, ptr %6, align 4, !tbaa !8
  %9 = load ptr, ptr %4, align 8
  call void @_ZN6google8protobuf2io19ZeroCopyInputStreamC2Ev(ptr noundef nonnull align 8 dereferenceable(8) %9)
  store ptr getelementptr inbounds inrange(-16, 48) ({ [8 x ptr] }, ptr @_ZTVN6google8protobuf2io18IstreamInputStreamE, i32 0, i32 0, i32 2), ptr %9, align 8, !tbaa !10
  %10 = getelementptr inbounds nuw %"class.google::protobuf::io::IstreamInputStream", ptr %9, i32 0, i32 1
  %11 = load ptr, ptr %5, align 8, !tbaa !55
  invoke void @_ZN6google8protobuf2io18IstreamInputStream25CopyingIstreamInputStreamC1EPSi(ptr noundef nonnull align 8 dereferenceable(16) %10, ptr noundef %11)
          to label %12 unwind label %17

12:                                               ; preds = %3
  %13 = getelementptr inbounds nuw %"class.google::protobuf::io::IstreamInputStream", ptr %9, i32 0, i32 2
  %14 = getelementptr inbounds nuw %"class.google::protobuf::io::IstreamInputStream", ptr %9, i32 0, i32 1
  %15 = load i32, ptr %6, align 4, !tbaa !8
  invoke void @_ZN6google8protobuf2io25CopyingInputStreamAdaptorC1EPNS1_18CopyingInputStreamEi(ptr noundef nonnull align 8 dereferenceable(52) %13, ptr noundef %14, i32 noundef %15)
          to label %16 unwind label %21

16:                                               ; preds = %12
  ret void

17:                                               ; preds = %3
  %18 = landingpad { ptr, i32 }
          cleanup
  %19 = extractvalue { ptr, i32 } %18, 0
  store ptr %19, ptr %7, align 8
  %20 = extractvalue { ptr, i32 } %18, 1
  store i32 %20, ptr %8, align 4
  br label %25

21:                                               ; preds = %12
  %22 = landingpad { ptr, i32 }
          cleanup
  %23 = extractvalue { ptr, i32 } %22, 0
  store ptr %23, ptr %7, align 8
  %24 = extractvalue { ptr, i32 } %22, 1
  store i32 %24, ptr %8, align 4
  call void @_ZN6google8protobuf2io18IstreamInputStream25CopyingIstreamInputStreamD1Ev(ptr noundef nonnull align 8 dereferenceable(16) %10) #3
  br label %25

25:                                               ; preds = %21, %17
  call void @_ZN6google8protobuf2io19ZeroCopyInputStreamD2Ev(ptr noundef nonnull align 8 dereferenceable(8) %9) #3
  br label %26

26:                                               ; preds = %25
  %27 = load ptr, ptr %7, align 8
  %28 = load i32, ptr %8, align 4
  %29 = insertvalue { ptr, i32 } poison, ptr %27, 0
  %30 = insertvalue { ptr, i32 } %29, i32 %28, 1
  resume { ptr, i32 } %30
}