; Function Attrs: mustprogress uwtable
define hidden void @_ZN6google8protobuf2io18IstreamInputStreamC2EPSii(ptr noundef nonnull align 8 dereferenceable(80) initializes((0, 24)) %0, ptr noundef %1, i32 noundef %2) unnamed_addr #3 align 2 personality ptr @__gxx_personality_v0 {
  store ptr getelementptr inbounds nuw inrange(-16, 48) (i8, ptr @_ZTVN6google8protobuf2io18IstreamInputStreamE, i64 16), ptr %0, align 8, !tbaa !3
  %4 = getelementptr inbounds nuw i8, ptr %0, i64 8
  store ptr getelementptr inbounds nuw inrange(-16, 32) (i8, ptr @_ZTVN6google8protobuf2io18IstreamInputStream25CopyingIstreamInputStreamE, i64 16), ptr %4, align 8, !tbaa !3
  %5 = getelementptr inbounds nuw i8, ptr %0, i64 16
  store ptr %1, ptr %5, align 8, !tbaa !30
  %6 = getelementptr inbounds nuw i8, ptr %0, i64 24
  tail call void @_ZN6google8protobuf2io25CopyingInputStreamAdaptorC1EPNS1_18CopyingInputStreamEi(ptr noundef nonnull align 8 dereferenceable(52) %6, ptr noundef nonnull %4, i32 noundef %2)
  ret void
}